	.file	"function_pointer.c"
	.text
	.section	.rodata
.LC0:
	.string	"Function Pointer"
	.text
	.globl	main
	.type	main, @function
main:
.LFB0:
	.cfi_startproc
	endbr64
	pushq	%rbp
	.cfi_def_cfa_offset 16
	.cfi_offset 6, -16
	movq	%rsp, %rbp
	.cfi_def_cfa_register 6
	subq	$32, %rsp
	leaq	.LC0(%rip), %rax
	movq	%rax, -24(%rbp)
	movl	$10, -32(%rbp)
	movl	$20, -28(%rbp)
	leaq	Add(%rip), %rax
	movq	%rax, -16(%rbp)
	leaq	SPrint(%rip), %rax
	movq	%rax, -8(%rbp)
	movl	-28(%rbp), %edx
	movl	-32(%rbp), %eax
	movq	-16(%rbp), %rcx
	movl	%edx, %esi
	movl	%eax, %edi
	call	*%rcx
	movq	-24(%rbp), %rax
	movq	-8(%rbp), %rdx
	movq	%rax, %rdi
	call	*%rdx
	movl	$0, %eax
	leave
	.cfi_def_cfa 7, 8
	ret
	.cfi_endproc
.LFE0:
	.size	main, .-main
	.section	.rodata
.LC1:
	.string	"\353\215\247\354\205\210 \352\262\260\352\263\274 : %d \n"
	.text
	.globl	Add
	.type	Add, @function
Add:
.LFB1:
	.cfi_startproc
	endbr64
	pushq	%rbp
	.cfi_def_cfa_offset 16
	.cfi_offset 6, -16
	movq	%rsp, %rbp
	.cfi_def_cfa_register 6
	subq	$16, %rsp
	movl	%edi, -4(%rbp)
	movl	%esi, -8(%rbp)
	movl	-4(%rbp), %edx
	movl	-8(%rbp), %eax
	addl	%edx, %eax
	movl	%eax, %esi
	leaq	.LC1(%rip), %rdi
	movl	$0, %eax
	call	printf@PLT
	nop
	leave
	.cfi_def_cfa 7, 8
	ret
	.cfi_endproc
.LFE1:
	.size	Add, .-Add
	.section	.rodata
.LC2:
	.string	"\354\236\205\353\240\245\353\220\234 \353\254\270\354\236\220\354\227\264 : %s \n"
	.text
	.globl	SPrint
	.type	SPrint, @function
SPrint:
.LFB2:
	.cfi_startproc
	endbr64
	pushq	%rbp
	.cfi_def_cfa_offset 16
	.cfi_offset 6, -16
	movq	%rsp, %rbp
	.cfi_def_cfa_register 6
	subq	$16, %rsp
	movq	%rdi, -8(%rbp)
	movq	-8(%rbp), %rax
	movq	%rax, %rsi
	leaq	.LC2(%rip), %rdi
	movl	$0, %eax
	call	printf@PLT
	nop
	leave
	.cfi_def_cfa 7, 8
	ret
	.cfi_endproc
.LFE2:
	.size	SPrint, .-SPrint
	.ident	"GCC: (Ubuntu 9.4.0-1ubuntu1~20.04.1) 9.4.0"
	.section	.note.GNU-stack,"",@progbits
	.section	.note.gnu.property,"a"
	.align 8
	.long	 1f - 0f
	.long	 4f - 1f
	.long	 5
0:
	.string	 "GNU"
1:
	.align 8
	.long	 0xc0000002
	.long	 3f - 2f
2:
	.long	 0x3
3:
	.align 8
4:
